; Function Attrs: nounwind uwtable
define internal range(i32 0, 2) i32 @clusterManagerCommandCheck(i32 noundef %0, ptr noundef readonly captures(none) %1) #0 {
  %3 = icmp eq i32 %0, 1
  %4 = load ptr, ptr %1, align 8, !tbaa !24
  br i1 %3, label %5, label %11

5:                                                ; preds = %2
  %6 = tail call ptr @strrchr(ptr noundef nonnull dereferenceable(1) %4, i32 noundef 64) #35
  %.not.i.i = icmp eq ptr %6, null
  br i1 %.not.i.i, label %8, label %7

7:                                                ; preds = %5
  store i8 0, ptr %6, align 1, !tbaa !67
  br label %8

8:                                                ; preds = %7, %5
  %9 = tail call ptr @strrchr(ptr noundef nonnull dereferenceable(1) %4, i32 noundef 58) #35
  %.not17.i.i = icmp eq ptr %9, null
  br i1 %.not17.i.i, label %33, label %parseClusterNodeAddress.exit.i

parseClusterNodeAddress.exit.i:                   ; preds = %8
  store i8 0, ptr %9, align 1, !tbaa !67
  %10 = getelementptr inbounds nuw i8, ptr %9, i64 1
  br label %14

11:                                               ; preds = %2
  %12 = getelementptr inbounds nuw i8, ptr %1, i64 8
  %13 = load ptr, ptr %12, align 8, !tbaa !24
  br label %14

14:                                               ; preds = %11, %parseClusterNodeAddress.exit.i
  %.sink.i = phi ptr [ %10, %parseClusterNodeAddress.exit.i ], [ %13, %11 ]
  %15 = tail call i64 @strtol(ptr noundef nonnull captures(none) %.sink.i, ptr noundef null, i32 noundef 10) #33
  %.013.i = trunc i64 %15 to i32
  %16 = icmp ne ptr %4, null
  %17 = icmp ne i32 %.013.i, 0
  %or.cond.i = select i1 %16, i1 %17, i1 false
  br i1 %or.cond.i, label %getClusterHostFromCmdArgs.exit, label %33

getClusterHostFromCmdArgs.exit:                   ; preds = %14
  %18 = tail call noalias dereferenceable_or_null(16520) ptr @zmalloc(i64 noundef 16520) #37
  %19 = getelementptr inbounds nuw i8, ptr %18, i64 16
  tail call void @llvm.memset.p0.i64(ptr noundef nonnull align 8 dereferenceable(16) %18, i8 0, i64 16, i1 false)
  store ptr %4, ptr %19, align 8, !tbaa !74
  %20 = getelementptr inbounds nuw i8, ptr %18, i64 24
  store i32 %.013.i, ptr %20, align 8, !tbaa !77
  %21 = add nsw i32 %.013.i, 10000
  %22 = getelementptr inbounds nuw i8, ptr %18, i64 28
  store i32 %21, ptr %22, align 4, !tbaa !78
  %23 = getelementptr inbounds nuw i8, ptr %18, i64 32
  %24 = getelementptr inbounds nuw i8, ptr %18, i64 64
  %25 = getelementptr inbounds nuw i8, ptr %18, i64 16480
  %26 = getelementptr inbounds nuw i8, ptr %18, i64 16472
  store i32 0, ptr %26, align 8, !tbaa !79
  %27 = getelementptr inbounds nuw i8, ptr %18, i64 16512
  tail call void @llvm.memset.p0.i64(ptr noundef nonnull align 8 dereferenceable(28) %23, i8 0, i64 28, i1 false)
  tail call void @llvm.memset.p0.i64(ptr noundef nonnull align 8 dereferenceable(20) %24, i8 0, i64 20, i1 false)
  tail call void @llvm.memset.p0.i64(ptr noundef nonnull align 8 dereferenceable(32) %25, i8 0, i64 32, i1 false)
  store float 1.000000e+00, ptr %27, align 8, !tbaa !80
  %28 = getelementptr inbounds nuw i8, ptr %18, i64 16516
  store i32 0, ptr %28, align 4, !tbaa !81
  %29 = getelementptr inbounds nuw i8, ptr %18, i64 84
  tail call void @llvm.memset.p0.i64(ptr noundef nonnull align 4 dereferenceable(16388) %29, i8 0, i64 16388, i1 false)
  %30 = tail call fastcc i32 @clusterManagerLoadInfoFromNode(ptr noundef nonnull %18)
  %.not3 = icmp eq i32 %30, 0
  br i1 %.not3, label %36, label %31

31:                                               ; preds = %getClusterHostFromCmdArgs.exit
  tail call fastcc void @clusterManagerShowClusterInfo()
  %32 = tail call fastcc i32 @clusterManagerCheckCluster(i32 noundef 0)
  br label %36

33:                                               ; preds = %14, %8
  %34 = load ptr, ptr @stderr, align 8, !tbaa !5
  %35 = tail call i64 @fwrite(ptr nonnull @.str.353, i64 138, i64 1, ptr %34) #34
  br label %36

36:                                               ; preds = %getClusterHostFromCmdArgs.exit, %33, %31
  %.0 = phi i32 [ %32, %31 ], [ 0, %33 ], [ 0, %getClusterHostFromCmdArgs.exit ]
  ret i32 %.0
}